; ModuleID = '23/1095.c'
source_filename = "23/1095.c"
target datalayout = "e-m:e-p270:32:32-p271:32:32-p272:64:64-i64:64-f80:128-n8:16:32:64-S128"
target triple = "x86_64-pc-linux-gnu"

@.str = private unnamed_addr constant [3 x i8] c"%c\00", align 1
@.str.1 = private unnamed_addr constant [2 x i8] c" \00", align 1

; Function Attrs: noinline nounwind uwtable
define dso_local void @main() #0 {
  %1 = alloca [128 x i8], align 16
  %2 = alloca i32, align 4
  %3 = alloca i32, align 4
  %4 = alloca i8*, align 8
  %5 = alloca i8*, align 8
  %6 = alloca i8*, align 8
  %7 = getelementptr inbounds [128 x i8], [128 x i8]* %1, i64 0, i64 0
  %8 = call i32 (i8*, ...) bitcast (i32 (...)* @gets to i32 (i8*, ...)*)(i8* %7)
  %9 = getelementptr inbounds [128 x i8], [128 x i8]* %1, i64 0, i64 0
  %10 = call i64 @strlen(i8* %9) #3
  %11 = trunc i64 %10 to i32
  store i32 %11, i32* %2, align 4
  %12 = getelementptr inbounds [128 x i8], [128 x i8]* %1, i64 0, i64 0
  store i8* %12, i8** %4, align 8
  %13 = load i8*, i8** %4, align 8
  %14 = load i32, i32* %2, align 4
  %15 = sext i32 %14 to i64
  %16 = getelementptr inbounds i8, i8* %13, i64 %15
  %17 = getelementptr inbounds i8, i8* %16, i64 -1
  store i8* %17, i8** %4, align 8
  %18 = getelementptr inbounds [128 x i8], [128 x i8]* %1, i64 0, i64 0
  %19 = load i32, i32* %2, align 4
  %20 = sext i32 %19 to i64
  %21 = getelementptr inbounds i8, i8* %18, i64 %20
  store i8* %21, i8** %5, align 8
  %22 = load i32, i32* %2, align 4
  store i32 %22, i32* %3, align 4
  br label %23

23:                                               ; preds = %52, %0
  %24 = load i32, i32* %3, align 4
  %25 = icmp sgt i32 %24, 0
  br i1 %25, label %26, label %57

26:                                               ; preds = %23
  %27 = load i8*, i8** %4, align 8
  %28 = load i8, i8* %27, align 1
  %29 = sext i8 %28 to i32
  %30 = icmp eq i32 %29, 32
  br i1 %30, label %31, label %51

31:                                               ; preds = %26
  %32 = load i8*, i8** %4, align 8
  store i8* %32, i8** %6, align 8
  %33 = load i8*, i8** %4, align 8
  %34 = getelementptr inbounds i8, i8* %33, i64 1
  store i8* %34, i8** %4, align 8
  br label %35

35:                                               ; preds = %44, %31
  %36 = load i8*, i8** %4, align 8
  %37 = load i8*, i8** %5, align 8
  %38 = icmp ne i8* %36, %37
  br i1 %38, label %39, label %47

39:                                               ; preds = %35
  %40 = load i8*, i8** %4, align 8
  %41 = load i8, i8* %40, align 1
  %42 = sext i8 %41 to i32
  %43 = call i32 (i8*, ...) @printf(i8* getelementptr inbounds ([3 x i8], [3 x i8]* @.str, i64 0, i64 0), i32 %42)
  br label %44

44:                                               ; preds = %39
  %45 = load i8*, i8** %4, align 8
  %46 = getelementptr inbounds i8, i8* %45, i32 1
  store i8* %46, i8** %4, align 8
  br label %35

47:                                               ; preds = %35
  %48 = call i32 (i8*, ...) @printf(i8* getelementptr inbounds ([2 x i8], [2 x i8]* @.str.1, i64 0, i64 0))
  %49 = load i8*, i8** %6, align 8
  store i8* %49, i8** %5, align 8
  %50 = load i8*, i8** %6, align 8
  store i8* %50, i8** %4, align 8
  br label %51

51:                                               ; preds = %47, %26
  br label %52

52:                                               ; preds = %51
  %53 = load i32, i32* %3, align 4
  %54 = add nsw i32 %53, -1
  store i32 %54, i32* %3, align 4
  %55 = load i8*, i8** %4, align 8
  %56 = getelementptr inbounds i8, i8* %55, i32 -1
  store i8* %56, i8** %4, align 8
  br label %23

57:                                               ; preds = %23
  %58 = getelementptr inbounds [128 x i8], [128 x i8]* %1, i64 0, i64 0
  store i8* %58, i8** %4, align 8
  br label %59

59:                                               ; preds = %68, %57
  %60 = load i8*, i8** %4, align 8
  %61 = load i8*, i8** %5, align 8
  %62 = icmp ne i8* %60, %61
  br i1 %62, label %63, label %71

63:                                               ; preds = %59
  %64 = load i8*, i8** %4, align 8
  %65 = load i8, i8* %64, align 1
  %66 = sext i8 %65 to i32
  %67 = call i32 (i8*, ...) @printf(i8* getelementptr inbounds ([3 x i8], [3 x i8]* @.str, i64 0, i64 0), i32 %66)
  br label %68

68:                                               ; preds = %63
  %69 = load i8*, i8** %4, align 8
  %70 = getelementptr inbounds i8, i8* %69, i32 1
  store i8* %70, i8** %4, align 8
  br label %59

71:                                               ; preds = %59
  ret void
}

declare dso_local i32 @gets(...) #1

; Function Attrs: nounwind readonly
declare dso_local i64 @strlen(i8*) #2

declare dso_local i32 @printf(i8*, ...) #1


!llvm.module.flags = !{!0}
!llvm.ident = !{!1}

!0 = !{i32 1, !"wchar_size", i32 4}
!1 = !{!"clang version 10.0.0-4ubuntu1 "}
